target datalayout = "e-m:e-p270:32:32-p271:32:32-p272:64:64-i64:64-i128:128-f80:128-n8:16:32:64-S128"
target triple = "x86_64-pc-linux-gnu"

%struct.RBasic = type { i64, i64 }

; Function Attrs: inlinehint nounwind sspstrong uwtable
define internal i32 @get_shape_id_from_flags(i64 noundef %0) #1 {
  %2 = alloca i64, align 8
  store i64 %0, ptr %2, align 8, !tbaa !26
  %3 = load i64, ptr %2, align 8, !tbaa !26
  %4 = inttoptr i64 %3 to ptr
  %5 = getelementptr inbounds nuw %struct.RBasic, ptr %4, i32 0, i32 0
  %6 = load i64, ptr %5, align 8, !tbaa !44
  %7 = lshr i64 %6, 32
  %8 = and i64 4294967295, %7
  %9 = trunc i64 %8 to i32
  ret i32 %9
}

; Function Attrs: inlinehint nounwind sspstrong willreturn memory(none) uwtable
define internal zeroext i1 @RB_IMMEDIATE_P(i64 noundef %0) #3 {
  %2 = alloca i64, align 8
  store i64 %0, ptr %2, align 8, !tbaa !26
  %3 = load i64, ptr %2, align 8, !tbaa !26
  %4 = and i64 %3, 7
  %5 = icmp ne i64 %4, 0
  ret i1 %5
}

; Function Attrs: inlinehint nounwind sspstrong uwtable
define internal i32 @RBASIC_SHAPE_ID(i64 noundef %0) #1 {
  %2 = alloca i64, align 8
  store i64 %0, ptr %2, align 8, !tbaa !26
  %3 = load i64, ptr %2, align 8, !tbaa !26
  %4 = call i32 @get_shape_id_from_flags(i64 noundef %3)
  ret i32 %4
}

; Function Attrs: inlinehint nounwind sspstrong willreturn memory(none) uwtable
define internal zeroext i1 @RB_SPECIAL_CONST_P(i64 noundef %0) #3 {
  %2 = alloca i64, align 8
  store i64 %0, ptr %2, align 8, !tbaa !26
  %3 = load i64, ptr %2, align 8, !tbaa !26
  %4 = icmp eq i64 %3, 0
  br i1 %4, label %8, label %5

5:                                                ; preds = %1
  %6 = load i64, ptr %2, align 8, !tbaa !26
  %7 = call zeroext i1 @RB_IMMEDIATE_P(i64 noundef %6) #15
  br label %8

8:                                                ; preds = %5, %1
  %9 = phi i1 [ true, %1 ], [ %7, %5 ]
  ret i1 %9
}

; Function Attrs: nounwind sspstrong uwtable
define hidden i32 @rb_shape_get_shape_id(i64 noundef %0) #0 {
  %2 = alloca i32, align 4
  %3 = alloca i64, align 8
  store i64 %0, ptr %3, align 8, !tbaa !26
  %4 = load i64, ptr %3, align 8, !tbaa !26
  %5 = call zeroext i1 @RB_SPECIAL_CONST_P(i64 noundef %4) #15
  br i1 %5, label %6, label %7

6:                                                ; preds = %1
  store i32 1, ptr %2, align 4
  br label %10

7:                                                ; preds = %1
  %8 = load i64, ptr %3, align 8, !tbaa !26
  %9 = call i32 @RBASIC_SHAPE_ID(i64 noundef %8)
  store i32 %9, ptr %2, align 4
  br label %10

10:                                               ; preds = %7, %6
  %11 = load i32, ptr %2, align 4
  ret i32 %11
}

; Function Attrs: nounwind sspstrong uwtable
define hidden zeroext i1 @rb_shape_obj_too_complex(i64 noundef %0) #0 {
  %2 = alloca i64, align 8
  store i64 %0, ptr %2, align 8, !tbaa !26
  %3 = load i64, ptr %2, align 8, !tbaa !26
  %4 = call i32 @rb_shape_get_shape_id(i64 noundef %3)
  %5 = icmp eq i32 %4, 2
  ret i1 %5
}