; Function Attrs: mustprogress nofree norecurse nosync nounwind sspstrong willreturn memory(read, inaccessiblemem: none) uwtable
define hidden zeroext i1 @rb_shape_obj_too_complex(i64 noundef %0) local_unnamed_addr #0 {
  %2 = icmp eq i64 %0, 0
  %3 = and i64 %0, 7
  %4 = icmp ne i64 %3, 0
  %5 = or i1 %2, %4
  br i1 %5, label %rb_shape_get_shape_id.exit, label %6

6:                                                ; preds = %1
  %7 = inttoptr i64 %0 to ptr
  %8 = load i64, ptr %7, align 8, !tbaa !24
  %.mask = and i64 %8, -4294967296
  %9 = icmp eq i64 %.mask, 8589934592
  br label %rb_shape_get_shape_id.exit

rb_shape_get_shape_id.exit:                       ; preds = %1, %6
  %.0.i = phi i1 [ %9, %6 ], [ false, %1 ]
  ret i1 %.0.i
}